; Function Attrs: mustprogress uwtable
define dso_local void @_ZN13cmSystemTools7EnvDiff9AppendEnvERKSt6vectorINSt7__cxx1112basic_stringIcSt11char_traitsIcESaIcEEESaIS7_EE(ptr noundef nonnull align 8 dereferenceable(48) %0, ptr noundef nonnull readonly align 8 captures(none) dereferenceable(24) %1) local_unnamed_addr #3 align 2 {
  %3 = load ptr, ptr %1, align 8, !tbaa !131
  %4 = getelementptr inbounds nuw i8, ptr %1, i64 8
  %5 = load ptr, ptr %4, align 8, !tbaa !131
  %.not8 = icmp eq ptr %3, %5
  br i1 %.not8, label %._crit_edge, label %.lr.ph

._crit_edge:                                      ; preds = %.lr.ph, %2
  ret void

.lr.ph:                                           ; preds = %2, %.lr.ph
  %.sroa.05.09 = phi ptr [ %6, %.lr.ph ], [ %3, %2 ]
  tail call void @_ZN13cmSystemTools7EnvDiff6PutEnvERKNSt7__cxx1112basic_stringIcSt11char_traitsIcESaIcEEE(ptr noundef nonnull align 8 dereferenceable(48) %0, ptr noundef nonnull align 8 dereferenceable(32) %.sroa.05.09)
  %6 = getelementptr inbounds nuw i8, ptr %.sroa.05.09, i64 32
  %.not = icmp eq ptr %6, %5
  br i1 %.not, label %._crit_edge, label %.lr.ph
}